target datalayout = "e-m:e-p270:32:32-p271:32:32-p272:64:64-i64:64-i128:128-f80:128-n8:16:32:64-S128"
target triple = "x86_64-pc-linux-gnu"

@.str.3 = private unnamed_addr constant [13 x i8] c"formatting.c\00", align 1
@.str.58 = private unnamed_addr constant [21 x i8] c"\22%s\22 is not a number\00", align 1
@__func__.get_th = private unnamed_addr constant [7 x i8] c"get_th\00", align 1
@numTH = internal constant [5 x ptr] [ptr @.str.59, ptr @.str.60, ptr @.str.61, ptr @.str.62, ptr null], align 16
@numth = internal constant [5 x ptr] [ptr @.str.63, ptr @.str.64, ptr @.str.65, ptr @.str.66, ptr null], align 16

; Function Attrs: nounwind uwtable
define internal ptr @get_th(ptr noundef %0, i32 noundef %1) #0 {
  %3 = alloca ptr, align 8
  %4 = alloca ptr, align 8
  %5 = alloca i32, align 4
  %6 = alloca i32, align 4
  %7 = alloca i32, align 4
  %8 = alloca i32, align 4
  store ptr %0, ptr %4, align 8
  store i32 %1, ptr %5, align 4
  call void @llvm.lifetime.start.p0(i64 4, ptr %6) #11
  %9 = load ptr, ptr %4, align 8
  %10 = call i64 @strlen(ptr noundef %9) #13
  %11 = trunc i64 %10 to i32
  store i32 %11, ptr %6, align 4
  call void @llvm.lifetime.start.p0(i64 4, ptr %7) #11
  %12 = load ptr, ptr %4, align 8
  %13 = load i32, ptr %6, align 4
  %14 = sub i32 %13, 1
  %15 = sext i32 %14 to i64
  %16 = getelementptr inbounds i8, ptr %12, i64 %15
  %17 = load i8, ptr %16, align 1
  %18 = sext i8 %17 to i32
  store i32 %18, ptr %7, align 4
  %19 = call ptr @__ctype_b_loc() #14
  %20 = load ptr, ptr %19, align 8
  %21 = load i32, ptr %7, align 4
  %22 = trunc i32 %21 to i8
  %23 = zext i8 %22 to i32
  %24 = sext i32 %23 to i64
  %25 = getelementptr inbounds i16, ptr %20, i64 %24
  %26 = load i16, ptr %25, align 2
  %27 = zext i16 %26 to i32
  %28 = and i32 %27, 2048
  %29 = icmp ne i32 %28, 0
  br i1 %29, label %43, label %30

30:                                               ; preds = %2
  br label %31

31:                                               ; preds = %30
  br i1 true, label %32, label %34

32:                                               ; preds = %31
  %33 = call zeroext i1 @errstart_cold(i32 noundef 21, ptr noundef null) #12
  br i1 %33, label %36, label %40

34:                                               ; preds = %31
  %35 = call zeroext i1 @errstart(i32 noundef 21, ptr noundef null)
  br i1 %35, label %36, label %40

36:                                               ; preds = %34, %32
  %37 = call i32 @errcode(i32 noundef 33685634)
  %38 = load ptr, ptr %4, align 8
  %39 = call i32 (ptr, ...) @errmsg(ptr noundef @.str.58, ptr noundef %38)
  call void @errfinish(ptr noundef @.str.3, i32 noundef 1572, ptr noundef @__func__.get_th)
  br label %40

40:                                               ; preds = %36, %34, %32
  unreachable

41:                                               ; No predecessors!
  br label %42

42:                                               ; preds = %41
  br label %43

43:                                               ; preds = %42, %2
  %44 = load i32, ptr %6, align 4
  %45 = icmp sgt i32 %44, 1
  br i1 %45, label %46, label %56

46:                                               ; preds = %43
  %47 = load ptr, ptr %4, align 8
  %48 = load i32, ptr %6, align 4
  %49 = sub i32 %48, 2
  %50 = sext i32 %49 to i64
  %51 = getelementptr inbounds i8, ptr %47, i64 %50
  %52 = load i8, ptr %51, align 1
  %53 = sext i8 %52 to i32
  %54 = icmp eq i32 %53, 49
  br i1 %54, label %55, label %56

55:                                               ; preds = %46
  store i32 0, ptr %7, align 4
  br label %56

56:                                               ; preds = %55, %46, %43
  %57 = load i32, ptr %7, align 4
  switch i32 %57, label %79 [
    i32 49, label %58
    i32 50, label %65
    i32 51, label %72
  ]

58:                                               ; preds = %56
  %59 = load i32, ptr %5, align 4
  %60 = icmp eq i32 %59, 1
  br i1 %60, label %61, label %63

61:                                               ; preds = %58
  %62 = load ptr, ptr @numTH, align 16
  store ptr %62, ptr %3, align 8
  store i32 1, ptr %8, align 4
  br label %86

63:                                               ; preds = %58
  %64 = load ptr, ptr @numth, align 16
  store ptr %64, ptr %3, align 8
  store i32 1, ptr %8, align 4
  br label %86

65:                                               ; preds = %56
  %66 = load i32, ptr %5, align 4
  %67 = icmp eq i32 %66, 1
  br i1 %67, label %68, label %70

68:                                               ; preds = %65
  %69 = load ptr, ptr getelementptr inbounds ([5 x ptr], ptr @numTH, i64 0, i64 1), align 8
  store ptr %69, ptr %3, align 8
  store i32 1, ptr %8, align 4
  br label %86

70:                                               ; preds = %65
  %71 = load ptr, ptr getelementptr inbounds ([5 x ptr], ptr @numth, i64 0, i64 1), align 8
  store ptr %71, ptr %3, align 8
  store i32 1, ptr %8, align 4
  br label %86

72:                                               ; preds = %56
  %73 = load i32, ptr %5, align 4
  %74 = icmp eq i32 %73, 1
  br i1 %74, label %75, label %77

75:                                               ; preds = %72
  %76 = load ptr, ptr getelementptr inbounds ([5 x ptr], ptr @numTH, i64 0, i64 2), align 16
  store ptr %76, ptr %3, align 8
  store i32 1, ptr %8, align 4
  br label %86

77:                                               ; preds = %72
  %78 = load ptr, ptr getelementptr inbounds ([5 x ptr], ptr @numth, i64 0, i64 2), align 16
  store ptr %78, ptr %3, align 8
  store i32 1, ptr %8, align 4
  br label %86

79:                                               ; preds = %56
  %80 = load i32, ptr %5, align 4
  %81 = icmp eq i32 %80, 1
  br i1 %81, label %82, label %84

82:                                               ; preds = %79
  %83 = load ptr, ptr getelementptr inbounds ([5 x ptr], ptr @numTH, i64 0, i64 3), align 8
  store ptr %83, ptr %3, align 8
  store i32 1, ptr %8, align 4
  br label %86

84:                                               ; preds = %79
  %85 = load ptr, ptr getelementptr inbounds ([5 x ptr], ptr @numth, i64 0, i64 3), align 8
  store ptr %85, ptr %3, align 8
  store i32 1, ptr %8, align 4
  br label %86

86:                                               ; preds = %84, %82, %77, %75, %70, %68, %63, %61
  call void @llvm.lifetime.end.p0(i64 4, ptr %7) #11
  call void @llvm.lifetime.end.p0(i64 4, ptr %6) #11
  %87 = load ptr, ptr %3, align 8
  ret ptr %87
}