; Function Attrs: nounwind uwtable
define internal fastcc noundef nonnull ptr @get_th(ptr noundef %0, i32 noundef range(i32 1, 3) %1) unnamed_addr #0 {
  %3 = tail call i64 @strlen(ptr noundef nonnull dereferenceable(1) %0) #19
  %4 = shl i64 %3, 32
  %sext = add i64 %4, -4294967296
  %5 = ashr exact i64 %sext, 32
  %6 = getelementptr inbounds i8, ptr %0, i64 %5
  %7 = load i8, ptr %6, align 1
  %8 = tail call ptr @__ctype_b_loc() #20
  %9 = load ptr, ptr %8, align 8
  %10 = zext i8 %7 to i64
  %11 = getelementptr inbounds nuw i16, ptr %9, i64 %10
  %12 = load i16, ptr %11, align 2
  %13 = and i16 %12, 2048
  %.not = icmp eq i16 %13, 0
  br i1 %.not, label %14, label %18

14:                                               ; preds = %2
  %15 = tail call zeroext i1 @errstart_cold(i32 noundef 21, ptr noundef null) #17
  tail call void @llvm.assume(i1 %15)
  %16 = tail call i32 @errcode(i32 noundef 33685634) #18
  %17 = tail call i32 (ptr, ...) @errmsg(ptr noundef nonnull @.str.58, ptr noundef nonnull %0) #18
  tail call void @errfinish(ptr noundef nonnull @.str.3, i32 noundef 1572, ptr noundef nonnull @__func__.get_th) #18
  unreachable

18:                                               ; preds = %2
  %19 = trunc i64 %3 to i32
  %20 = icmp sgt i32 %19, 1
  br i1 %20, label %21, label %27

21:                                               ; preds = %18
  %22 = add i64 %3, 4294967294
  %23 = and i64 %22, 4294967295
  %24 = getelementptr inbounds nuw i8, ptr %0, i64 %23
  %25 = load i8, ptr %24, align 1
  %26 = icmp eq i8 %25, 49
  br i1 %26, label %.thread, label %27

27:                                               ; preds = %21, %18
  switch i8 %7, label %.thread [
    i8 49, label %28
    i8 50, label %30
    i8 51, label %32
  ]

28:                                               ; preds = %27
  %29 = icmp eq i32 %1, 1
  %.str.59..str.63 = select i1 %29, ptr @.str.59, ptr @.str.63
  br label %35

30:                                               ; preds = %27
  %31 = icmp eq i32 %1, 1
  %.str.60..str.64 = select i1 %31, ptr @.str.60, ptr @.str.64
  br label %35

32:                                               ; preds = %27
  %33 = icmp eq i32 %1, 1
  %.str.61..str.65 = select i1 %33, ptr @.str.61, ptr @.str.65
  br label %35

.thread:                                          ; preds = %21, %27
  %34 = icmp eq i32 %1, 1
  %.str.62..str.66 = select i1 %34, ptr @.str.62, ptr @.str.66
  br label %35

35:                                               ; preds = %.thread, %32, %30, %28
  %.013 = phi ptr [ %.str.59..str.63, %28 ], [ %.str.60..str.64, %30 ], [ %.str.61..str.65, %32 ], [ %.str.62..str.66, %.thread ]
  ret ptr %.013
}